; Function Attrs: mustprogress uwtable
define dso_local void @_ZN21cmLocalNinjaGenerator30WriteNinjaFilesInclusionCommonERSo(ptr nocapture noundef nonnull readonly align 8 dereferenceable(952) %0, ptr noundef nonnull align 8 dereferenceable(8) %1) local_unnamed_addr #3 align 2 personality ptr @__gxx_personality_v0 {
  %3 = alloca %"class.std::__cxx11::basic_string", align 8
  %4 = alloca %"class.std::__cxx11::basic_string", align 8
  %5 = alloca %"class.std::allocator", align 1
  %6 = alloca %"class.std::__cxx11::basic_string", align 8
  %7 = alloca %"class.std::__cxx11::basic_string", align 8
  %8 = alloca %"class.std::allocator", align 1
  tail call void @_ZN22cmGlobalNinjaGenerator12WriteDividerERSo(ptr noundef nonnull align 8 dereferenceable(8) %1)
  %9 = tail call noundef nonnull align 8 dereferenceable(8) ptr @_ZStlsISt11char_traitsIcEERSt13basic_ostreamIcT_ES5_PKc(ptr noundef nonnull align 8 dereferenceable(8) %1, ptr noundef nonnull @.str.28)
  %10 = getelementptr inbounds i8, ptr %0, i64 136
  %11 = load ptr, ptr %10, align 8
  %12 = load ptr, ptr @_ZN22cmGlobalNinjaGenerator16NINJA_RULES_FILEE, align 8
  call void @_ZNSaIcEC1Ev(ptr noundef nonnull align 1 dereferenceable(1) %5) #22
  %13 = invoke noundef ptr @_ZNSt7__cxx1112basic_stringIcSt11char_traitsIcESaIcEE13_M_local_dataEv(ptr noundef nonnull align 8 dereferenceable(32) %4)
          to label %.noexc unwind label %30

.noexc:                                           ; preds = %2
  invoke void @_ZNSt7__cxx1112basic_stringIcSt11char_traitsIcESaIcEE12_Alloc_hiderC1EPcRKS3_(ptr noundef nonnull align 8 dereferenceable(8) %4, ptr noundef %13, ptr noundef nonnull align 1 dereferenceable(1) %5)
          to label %.noexc20 unwind label %30

.noexc20:                                         ; preds = %.noexc
  %14 = icmp eq ptr %12, null
  br i1 %14, label %15, label %19

15:                                               ; preds = %.noexc20
  invoke void @_ZSt19__throw_logic_errorPKc(ptr noundef nonnull @.str.61) #26
          to label %16 unwind label %17

16:                                               ; preds = %15
  unreachable

17:                                               ; preds = %19, %15
  %18 = landingpad { ptr, i32 }
          cleanup
  call void @_ZNSaIcED2Ev(ptr noundef nonnull align 1 dereferenceable(1) %4) #22
  br label %.body

19:                                               ; preds = %.noexc20
  %20 = call noundef i64 @strlen(ptr noundef nonnull dereferenceable(1) %12) #22
  %21 = getelementptr inbounds i8, ptr %12, i64 %20
  invoke void @_ZNSt7__cxx1112basic_stringIcSt11char_traitsIcESaIcEE12_M_constructIPKcEEvT_S8_St20forward_iterator_tag(ptr noundef nonnull align 8 dereferenceable(32) %4, ptr noundef nonnull %12, ptr noundef nonnull %21)
          to label %_ZNSt7__cxx1112basic_stringIcSt11char_traitsIcESaIcEEC2IS3_EEPKcRKS3_.exit unwind label %17

_ZNSt7__cxx1112basic_stringIcSt11char_traitsIcESaIcEEC2IS3_EEPKcRKS3_.exit: ; preds = %19
  invoke void @_ZNK22cmGlobalNinjaGenerator15NinjaOutputPathERKNSt7__cxx1112basic_stringIcSt11char_traitsIcESaIcEEE(ptr dead_on_unwind nonnull writable sret(%"class.std::__cxx11::basic_string") align 8 %3, ptr noundef nonnull align 8 dereferenceable(2808) %11, ptr noundef nonnull align 8 dereferenceable(32) %4)
          to label %22 unwind label %32

22:                                               ; preds = %_ZNSt7__cxx1112basic_stringIcSt11char_traitsIcESaIcEEC2IS3_EEPKcRKS3_.exit
  call void @_ZNSt7__cxx1112basic_stringIcSt11char_traitsIcESaIcEED1Ev(ptr noundef nonnull align 8 dereferenceable(32) %4) #22
  call void @_ZNSaIcED1Ev(ptr noundef nonnull align 1 dereferenceable(1) %5) #22
  invoke void @_ZN22cmGlobalNinjaGenerator10EncodePathERKNSt7__cxx1112basic_stringIcSt11char_traitsIcESaIcEEE(ptr dead_on_unwind nonnull writable sret(%"class.std::__cxx11::basic_string") align 8 %6, ptr noundef nonnull align 8 dereferenceable(2808) %11, ptr noundef nonnull align 8 dereferenceable(32) %3)
          to label %23 unwind label %34

23:                                               ; preds = %22
  call void @_ZNSaIcEC1Ev(ptr noundef nonnull align 1 dereferenceable(1) %8) #22
  %24 = invoke noundef ptr @_ZNSt7__cxx1112basic_stringIcSt11char_traitsIcESaIcEE13_M_local_dataEv(ptr noundef nonnull align 8 dereferenceable(32) %7)
          to label %.noexc21 unwind label %36

.noexc21:                                         ; preds = %23
  invoke void @_ZNSt7__cxx1112basic_stringIcSt11char_traitsIcESaIcEE12_Alloc_hiderC1EPcRKS3_(ptr noundef nonnull align 8 dereferenceable(8) %7, ptr noundef %24, ptr noundef nonnull align 1 dereferenceable(1) %8)
          to label %.noexc22 unwind label %36

.noexc22:                                         ; preds = %.noexc21
  invoke void @_ZNSt7__cxx1112basic_stringIcSt11char_traitsIcESaIcEE12_M_constructIPKcEEvT_S8_St20forward_iterator_tag(ptr noundef nonnull align 8 dereferenceable(32) %7, ptr noundef nonnull @.str.31, ptr noundef nonnull getelementptr inbounds ([20 x i8], ptr @.str.31, i64 0, i64 19))
          to label %_ZNSt7__cxx1112basic_stringIcSt11char_traitsIcESaIcEEC2IS3_EEPKcRKS3_.exit25 unwind label %25

25:                                               ; preds = %.noexc22
  %26 = landingpad { ptr, i32 }
          cleanup
  call void @_ZNSaIcED2Ev(ptr noundef nonnull align 1 dereferenceable(1) %7) #22
  br label %.body23

_ZNSt7__cxx1112basic_stringIcSt11char_traitsIcESaIcEEC2IS3_EEPKcRKS3_.exit25: ; preds = %.noexc22
  invoke void @_ZN22cmGlobalNinjaGenerator12WriteIncludeERSoRKNSt7__cxx1112basic_stringIcSt11char_traitsIcESaIcEEES8_(ptr noundef nonnull align 8 dereferenceable(8) %1, ptr noundef nonnull align 8 dereferenceable(32) %6, ptr noundef nonnull align 8 dereferenceable(32) %7)
          to label %27 unwind label %38

27:                                               ; preds = %_ZNSt7__cxx1112basic_stringIcSt11char_traitsIcESaIcEEC2IS3_EEPKcRKS3_.exit25
  call void @_ZNSt7__cxx1112basic_stringIcSt11char_traitsIcESaIcEED1Ev(ptr noundef nonnull align 8 dereferenceable(32) %7) #22
  call void @_ZNSaIcED1Ev(ptr noundef nonnull align 1 dereferenceable(1) %8) #22
  %28 = invoke noundef nonnull align 8 dereferenceable(8) ptr @_ZStlsISt11char_traitsIcEERSt13basic_ostreamIcT_ES5_PKc(ptr noundef nonnull align 8 dereferenceable(8) %1, ptr noundef nonnull @.str.30)
          to label %29 unwind label %40

29:                                               ; preds = %27
  call void @_ZNSt7__cxx1112basic_stringIcSt11char_traitsIcESaIcEED1Ev(ptr noundef nonnull align 8 dereferenceable(32) %6) #22
  call void @_ZNSt7__cxx1112basic_stringIcSt11char_traitsIcESaIcEED1Ev(ptr noundef nonnull align 8 dereferenceable(32) %3) #22
  ret void

30:                                               ; preds = %.noexc, %2
  %31 = landingpad { ptr, i32 }
          cleanup
  br label %.body

32:                                               ; preds = %_ZNSt7__cxx1112basic_stringIcSt11char_traitsIcESaIcEEC2IS3_EEPKcRKS3_.exit
  %33 = landingpad { ptr, i32 }
          cleanup
  call void @_ZNSt7__cxx1112basic_stringIcSt11char_traitsIcESaIcEED1Ev(ptr noundef nonnull align 8 dereferenceable(32) %4) #22
  br label %.body

.body:                                            ; preds = %30, %17, %32
  %.pn = phi { ptr, i32 } [ %33, %32 ], [ %31, %30 ], [ %18, %17 ]
  call void @_ZNSaIcED1Ev(ptr noundef nonnull align 1 dereferenceable(1) %5) #22
  br label %44

34:                                               ; preds = %22
  %35 = landingpad { ptr, i32 }
          cleanup
  br label %43

36:                                               ; preds = %.noexc21, %23
  %37 = landingpad { ptr, i32 }
          cleanup
  br label %.body23

38:                                               ; preds = %_ZNSt7__cxx1112basic_stringIcSt11char_traitsIcESaIcEEC2IS3_EEPKcRKS3_.exit25
  %39 = landingpad { ptr, i32 }
          cleanup
  call void @_ZNSt7__cxx1112basic_stringIcSt11char_traitsIcESaIcEED1Ev(ptr noundef nonnull align 8 dereferenceable(32) %7) #22
  br label %.body23

.body23:                                          ; preds = %36, %25, %38
  %.pn14 = phi { ptr, i32 } [ %39, %38 ], [ %37, %36 ], [ %26, %25 ]
  call void @_ZNSaIcED1Ev(ptr noundef nonnull align 1 dereferenceable(1) %8) #22
  br label %42

40:                                               ; preds = %27
  %41 = landingpad { ptr, i32 }
          cleanup
  br label %42

42:                                               ; preds = %40, %.body23
  %.pn16 = phi { ptr, i32 } [ %41, %40 ], [ %.pn14, %.body23 ]
  call void @_ZNSt7__cxx1112basic_stringIcSt11char_traitsIcESaIcEED1Ev(ptr noundef nonnull align 8 dereferenceable(32) %6) #22
  br label %43

43:                                               ; preds = %42, %34
  %.pn16.pn = phi { ptr, i32 } [ %.pn16, %42 ], [ %35, %34 ]
  call void @_ZNSt7__cxx1112basic_stringIcSt11char_traitsIcESaIcEED1Ev(ptr noundef nonnull align 8 dereferenceable(32) %3) #22
  br label %44

44:                                               ; preds = %43, %.body
  %.pn16.pn.pn = phi { ptr, i32 } [ %.pn16.pn, %43 ], [ %.pn, %.body ]
  resume { ptr, i32 } %.pn16.pn.pn
}